; Function Attrs: mustprogress nounwind uwtable
define hidden i32 @_ZN14GenerateOopMap7get_varEi(ptr nocapture noundef nonnull align 8 dereferenceable(176) %0, i32 noundef %1) local_unnamed_addr #0 align 2 {
  %3 = icmp slt i32 %1, 0
  %4 = getelementptr inbounds i8, ptr %0, i64 32
  %5 = load i32, ptr %4, align 8
  %6 = icmp slt i32 %5, %1
  %or.cond = select i1 %3, i1 true, i1 %6
  br i1 %or.cond, label %7, label %8

7:                                                ; preds = %2
  tail call void (ptr, ptr, ...) @_ZN14GenerateOopMap12report_errorEPKcz(ptr noundef nonnull align 8 dereferenceable(176) %0, ptr noundef nonnull @.str.78)
  br label %13

8:                                                ; preds = %2
  %9 = getelementptr inbounds i8, ptr %0, i64 72
  %10 = load ptr, ptr %9, align 8
  %11 = zext nneg i32 %1 to i64
  %12 = getelementptr inbounds %class.CellTypeState, ptr %10, i64 %11
  br label %13

13:                                               ; preds = %8, %7
  %.sroa.0.0.in = phi ptr [ @_ZL6valCTS, %7 ], [ %12, %8 ]
  %.sroa.0.0 = load i32, ptr %.sroa.0.0.in, align 4
  ret i32 %.sroa.0.0
}